; Function Attrs: nounwind uwtable
define internal void @lru_list_elem_dealloc(ptr noundef %0) #0 {
  %2 = getelementptr i8, ptr %0, i64 8
  %.val = load ptr, ptr %2, align 8, !tbaa !113
  %3 = getelementptr inbounds nuw i8, ptr %0, i64 40
  %4 = load ptr, ptr %3, align 8, !tbaa !153
  %.not.i6 = icmp eq ptr %4, null
  br i1 %.not.i6, label %Py_XDECREF.exit, label %5

5:                                                ; preds = %1
  %6 = load i32, ptr %4, align 8, !tbaa !21
  %.not.i.i = icmp sgt i32 %6, -1
  br i1 %.not.i.i, label %7, label %Py_XDECREF.exit

7:                                                ; preds = %5
  %8 = add nsw i32 %6, -1
  store i32 %8, ptr %4, align 8, !tbaa !21
  %9 = icmp eq i32 %8, 0
  br i1 %9, label %10, label %Py_XDECREF.exit

10:                                               ; preds = %7
  tail call void @_Py_Dealloc(ptr noundef nonnull %4) #9
  br label %Py_XDECREF.exit

Py_XDECREF.exit:                                  ; preds = %1, %5, %7, %10
  %11 = getelementptr inbounds nuw i8, ptr %0, i64 48
  %12 = load ptr, ptr %11, align 8, !tbaa !154
  %.not.i7 = icmp eq ptr %12, null
  br i1 %.not.i7, label %Py_XDECREF.exit9, label %13

13:                                               ; preds = %Py_XDECREF.exit
  %14 = load i32, ptr %12, align 8, !tbaa !21
  %.not.i.i8 = icmp sgt i32 %14, -1
  br i1 %.not.i.i8, label %15, label %Py_XDECREF.exit9

15:                                               ; preds = %13
  %16 = add nsw i32 %14, -1
  store i32 %16, ptr %12, align 8, !tbaa !21
  %17 = icmp eq i32 %16, 0
  br i1 %17, label %18, label %Py_XDECREF.exit9

18:                                               ; preds = %15
  tail call void @_Py_Dealloc(ptr noundef nonnull %12) #9
  br label %Py_XDECREF.exit9

Py_XDECREF.exit9:                                 ; preds = %Py_XDECREF.exit, %13, %15, %18
  %19 = getelementptr inbounds nuw i8, ptr %.val, i64 320
  %20 = load ptr, ptr %19, align 8, !tbaa !121
  tail call void %20(ptr noundef nonnull %0) #9
  %21 = load i32, ptr %.val, align 8, !tbaa !21
  %.not.i = icmp sgt i32 %21, -1
  br i1 %.not.i, label %22, label %Py_DECREF.exit

22:                                               ; preds = %Py_XDECREF.exit9
  %23 = add nsw i32 %21, -1
  store i32 %23, ptr %.val, align 8, !tbaa !21
  %24 = icmp eq i32 %23, 0
  br i1 %24, label %25, label %Py_DECREF.exit

25:                                               ; preds = %22
  tail call void @_Py_Dealloc(ptr noundef nonnull %.val) #9
  br label %Py_DECREF.exit

Py_DECREF.exit:                                   ; preds = %Py_XDECREF.exit9, %22, %25
  ret void
}